; Function Attrs: nounwind uwtable
define ptr @l_Lean_Meta_SimpTheorem_isRfl___boxed(ptr noundef %0, ptr noundef %1) local_unnamed_addr #1 {
  %3 = getelementptr inbounds nuw i8, ptr %0, i64 50
  %4 = load i8, ptr %3, align 1, !tbaa !14
  %5 = icmp eq i8 %4, 0
  br i1 %5, label %6, label %25

6:                                                ; preds = %2
  %7 = ptrtoint ptr %1 to i64
  %8 = and i64 %7, 1
  %.not.i = icmp eq i64 %8, 0
  br i1 %.not.i, label %9, label %lean_dec.exit9.i

9:                                                ; preds = %6
  %10 = load i32, ptr %1, align 4, !tbaa !4
  %11 = icmp sgt i32 %10, 1
  br i1 %11, label %12, label %14, !prof !11

12:                                               ; preds = %9
  %13 = add nsw i32 %10, -1
  store i32 %13, ptr %1, align 4, !tbaa !4
  br label %lean_dec.exit9.i

14:                                               ; preds = %9
  %.not.i.i = icmp eq i32 %10, 0
  br i1 %.not.i.i, label %lean_dec.exit9.i, label %15

15:                                               ; preds = %14
  tail call void @lean_dec_ref_cold(ptr noundef nonnull %1) #6
  br label %lean_dec.exit9.i

lean_dec.exit9.i:                                 ; preds = %15, %14, %12, %6
  %16 = ptrtoint ptr %0 to i64
  %17 = and i64 %16, 1
  %.not12.i = icmp eq i64 %17, 0
  br i1 %.not12.i, label %18, label %l_Lean_Meta_SimpTheorem_isRfl.exit

18:                                               ; preds = %lean_dec.exit9.i
  %19 = load i32, ptr %0, align 4, !tbaa !4
  %20 = icmp sgt i32 %19, 1
  br i1 %20, label %21, label %23, !prof !11

21:                                               ; preds = %18
  %22 = add nsw i32 %19, -1
  store i32 %22, ptr %0, align 4, !tbaa !4
  br label %l_Lean_Meta_SimpTheorem_isRfl.exit

23:                                               ; preds = %18
  %.not.i10.i = icmp eq i32 %19, 0
  br i1 %.not.i10.i, label %l_Lean_Meta_SimpTheorem_isRfl.exit, label %24

24:                                               ; preds = %23
  tail call void @lean_dec_ref_cold(ptr noundef nonnull %0) #6
  br label %l_Lean_Meta_SimpTheorem_isRfl.exit

25:                                               ; preds = %2
  %26 = tail call zeroext i8 @l_Lean_Meta_SimpTheorem_isRfl___lambda__1(ptr noundef nonnull %0, ptr noundef %1, ptr nonnull poison)
  %27 = shl nuw nsw i8 %26, 1
  %28 = or disjoint i8 %27, 1
  %29 = zext nneg i8 %28 to i64
  br label %l_Lean_Meta_SimpTheorem_isRfl.exit

l_Lean_Meta_SimpTheorem_isRfl.exit:               ; preds = %lean_dec.exit9.i, %21, %23, %24, %25
  %.0.i = phi i64 [ %29, %25 ], [ 1, %24 ], [ 1, %23 ], [ 1, %21 ], [ 1, %lean_dec.exit9.i ]
  %30 = inttoptr i64 %.0.i to ptr
  ret ptr %30
}